TN:
SF:/home/jks/List_Cpp/headers/list_cpp.h
FN:108,110,_ZN4ListIiE4sizeEv
FN:124,126,_ZN4ListIiE5beginEv
FN:133,155,_ZN4ListIiE6insertENS0_8iteratorEi
FN:18,18,_ZN4ListIiE4NodeC2Ei
FN:49,49,_ZN4ListIiE8iteratorC2EPNS0_4NodeE
FN:50,50,_ZN4ListIiE8iteratordeEv
FN:51,56,_ZN4ListIiE8iteratorppEv
FN:63,63,_ZN4ListIiEC2Ev
FN:66,71,_ZN4ListIiEC2ESt16initializer_listIiE
FN:73,77,_ZN4ListIiED2Ev
FN:79,94,_ZN4ListIiE8pop_backEv
FN:96,106,_ZN4ListIiE9push_backEi
FNDA:1,_ZN4ListIiE4sizeEv
FNDA:5,_ZN4ListIiE5beginEv
FNDA:4,_ZN4ListIiE6insertENS0_8iteratorEi
FNDA:20,_ZN4ListIiE4NodeC2Ei
FNDA:9,_ZN4ListIiE8iteratorC2EPNS0_4NodeE
FNDA:5,_ZN4ListIiE8iteratordeEv
FNDA:3,_ZN4ListIiE8iteratorppEv
FNDA:2,_ZN4ListIiEC2Ev
FNDA:4,_ZN4ListIiEC2ESt16initializer_listIiE
FNDA:6,_ZN4ListIiED2Ev
FNDA:20,_ZN4ListIiE8pop_backEv
FNDA:16,_ZN4ListIiE9push_backEi
FNF:12
FNH:12
BRDA:52,0,0,3
BRDA:52,0,1,0
BRDA:68,0,0,14
BRDA:68,0,1,4
BRDA:74,0,0,20
BRDA:74,0,1,6
BRDA:80,0,0,6
BRDA:80,0,1,14
BRDA:81,0,0,6
BRDA:81,0,1,0
BRDA:86,0,0,18
BRDA:86,0,1,14
BRDA:89,0,0,14
BRDA:89,0,1,0
BRDA:98,0,0,5
BRDA:98,0,1,11
BRDA:136,0,0,3
BRDA:136,0,1,1
BRDA:137,0,0,1
BRDA:137,0,1,2
BRDA:147,0,0,1
BRDA:147,0,1,1
BRF:22
BRH:19
DA:18,20
DA:49,9
DA:50,5
DA:51,3
DA:52,3
DA:53,3
DA:55,3
DA:63,2
DA:66,4
DA:67,4
DA:68,18
DA:69,14
DA:71,4
DA:73,6
DA:74,26
DA:75,20
DA:77,6
DA:79,20
DA:80,20
DA:81,6
DA:82,6
DA:83,6
DA:85,14
DA:86,32
DA:87,18
DA:89,14
DA:90,14
DA:91,14
DA:93,20
DA:94,20
DA:96,16
DA:97,16
DA:98,16
DA:99,5
DA:100,5
DA:102,11
DA:103,11
DA:105,16
DA:106,16
DA:108,1
DA:109,1
DA:124,5
DA:125,5
DA:133,4
DA:134,4
DA:135,4
DA:136,4
DA:137,3
DA:138,1
DA:139,1
DA:140,1
DA:142,2
DA:143,2
DA:146,1
DA:147,2
DA:148,1
DA:150,1
DA:151,1
DA:153,4
DA:154,4
LF:60
LH:60
end_of_record
